target datalayout = "e-m:e-p270:32:32-p271:32:32-p272:64:64-i64:64-i128:128-f80:128-n8:16:32:64-S128"
target triple = "x86_64-pc-linux-gnu"

%struct.Aig_Man_t_ = type { ptr, ptr, ptr, ptr, ptr, ptr, ptr, %struct.Aig_Obj_t_, i32, i32, i32, i32, i32, i32, [7 x i32], i32, ptr, i32, ptr, i32, ptr, i32, i32, i32, ptr, i32, i32, i32, i32, i32, ptr, ptr, i32, ptr, ptr, i32, ptr, ptr, i32, i32, i32, ptr, ptr, ptr, ptr, ptr, ptr, ptr, ptr, ptr, ptr, ptr, ptr, ptr, ptr, i32, ptr, ptr, ptr, ptr, i32, i64, i64, i64, ptr, ptr }
%struct.Aig_Obj_t_ = type { %union.anon, ptr, ptr, i64, i32, i32, %union.anon.0 }
%union.anon = type { ptr }
%union.anon.0 = type { ptr }

; Function Attrs: nounwind uwtable
define internal i32 @Aig_IsComplement(ptr noundef %0) #0 {
  %2 = alloca ptr, align 8
  store ptr %0, ptr %2, align 8
  %3 = load ptr, ptr %2, align 8
  %4 = ptrtoint ptr %3 to i64
  %5 = and i64 %4, 1
  %6 = trunc i64 %5 to i32
  ret i32 %6
}

; Function Attrs: nounwind uwtable
define internal ptr @Aig_Regular(ptr noundef %0) #0 {
  %2 = alloca ptr, align 8
  store ptr %0, ptr %2, align 8
  %3 = load ptr, ptr %2, align 8
  %4 = ptrtoint ptr %3 to i64
  %5 = and i64 %4, -2
  %6 = inttoptr i64 %5 to ptr
  ret ptr %6
}

; Function Attrs: nounwind uwtable
define internal i32 @Aig_ObjFaninC1(ptr noundef %0) #0 {
  %2 = alloca ptr, align 8
  store ptr %0, ptr %2, align 8
  %3 = load ptr, ptr %2, align 8
  %4 = getelementptr inbounds %struct.Aig_Obj_t_, ptr %3, i32 0, i32 2
  %5 = load ptr, ptr %4, align 8
  %6 = call i32 @Aig_IsComplement(ptr noundef %5)
  ret i32 %6
}

; Function Attrs: nounwind uwtable
define internal i32 @Aig_ObjFaninC0(ptr noundef %0) #0 {
  %2 = alloca ptr, align 8
  store ptr %0, ptr %2, align 8
  %3 = load ptr, ptr %2, align 8
  %4 = getelementptr inbounds %struct.Aig_Obj_t_, ptr %3, i32 0, i32 1
  %5 = load ptr, ptr %4, align 8
  %6 = call i32 @Aig_IsComplement(ptr noundef %5)
  ret i32 %6
}

; Function Attrs: nounwind uwtable
define internal ptr @Aig_ObjFanin1(ptr noundef %0) #0 {
  %2 = alloca ptr, align 8
  store ptr %0, ptr %2, align 8
  %3 = load ptr, ptr %2, align 8
  %4 = getelementptr inbounds %struct.Aig_Obj_t_, ptr %3, i32 0, i32 2
  %5 = load ptr, ptr %4, align 8
  %6 = call ptr @Aig_Regular(ptr noundef %5)
  ret ptr %6
}

; Function Attrs: nounwind uwtable
define internal ptr @Aig_ObjFanin0(ptr noundef %0) #0 {
  %2 = alloca ptr, align 8
  store ptr %0, ptr %2, align 8
  %3 = load ptr, ptr %2, align 8
  %4 = getelementptr inbounds %struct.Aig_Obj_t_, ptr %3, i32 0, i32 1
  %5 = load ptr, ptr %4, align 8
  %6 = call ptr @Aig_Regular(ptr noundef %5)
  ret ptr %6
}

; Function Attrs: nounwind uwtable
define internal i32 @Aig_ObjIsExor(ptr noundef %0) #0 {
  %2 = alloca ptr, align 8
  store ptr %0, ptr %2, align 8
  %3 = load ptr, ptr %2, align 8
  %4 = getelementptr inbounds %struct.Aig_Obj_t_, ptr %3, i32 0, i32 3
  %5 = load i64, ptr %4, align 8
  %6 = and i64 %5, 7
  %7 = trunc i64 %6 to i32
  %8 = icmp eq i32 %7, 6
  %9 = zext i1 %8 to i32
  ret i32 %9
}

; Function Attrs: nounwind uwtable
define internal i64 @Aig_Hash(ptr noundef %0, i32 noundef %1) #0 {
  %3 = alloca ptr, align 8
  %4 = alloca i32, align 4
  %5 = alloca i64, align 8
  store ptr %0, ptr %3, align 8
  store i32 %1, ptr %4, align 4
  %6 = load ptr, ptr %3, align 8
  %7 = call i32 @Aig_ObjIsExor(ptr noundef %6)
  %8 = mul nsw i32 %7, 1699
  %9 = sext i32 %8 to i64
  store i64 %9, ptr %5, align 8
  %10 = load ptr, ptr %3, align 8
  %11 = call ptr @Aig_ObjFanin0(ptr noundef %10)
  %12 = getelementptr inbounds %struct.Aig_Obj_t_, ptr %11, i32 0, i32 5
  %13 = load i32, ptr %12, align 4
  %14 = mul nsw i32 %13, 7937
  %15 = sext i32 %14 to i64
  %16 = load i64, ptr %5, align 8
  %17 = xor i64 %16, %15
  store i64 %17, ptr %5, align 8
  %18 = load ptr, ptr %3, align 8
  %19 = call ptr @Aig_ObjFanin1(ptr noundef %18)
  %20 = getelementptr inbounds %struct.Aig_Obj_t_, ptr %19, i32 0, i32 5
  %21 = load i32, ptr %20, align 4
  %22 = mul nsw i32 %21, 2971
  %23 = sext i32 %22 to i64
  %24 = load i64, ptr %5, align 8
  %25 = xor i64 %24, %23
  store i64 %25, ptr %5, align 8
  %26 = load ptr, ptr %3, align 8
  %27 = call i32 @Aig_ObjFaninC0(ptr noundef %26)
  %28 = mul nsw i32 %27, 911
  %29 = sext i32 %28 to i64
  %30 = load i64, ptr %5, align 8
  %31 = xor i64 %30, %29
  store i64 %31, ptr %5, align 8
  %32 = load ptr, ptr %3, align 8
  %33 = call i32 @Aig_ObjFaninC1(ptr noundef %32)
  %34 = mul nsw i32 %33, 353
  %35 = sext i32 %34 to i64
  %36 = load i64, ptr %5, align 8
  %37 = xor i64 %36, %35
  store i64 %37, ptr %5, align 8
  %38 = load i64, ptr %5, align 8
  %39 = load i32, ptr %4, align 4
  %40 = sext i32 %39 to i64
  %41 = urem i64 %38, %40
  ret i64 %41
}

; Function Attrs: nounwind uwtable
define internal ptr @Aig_TableFind(ptr noundef %0, ptr noundef %1) #0 {
  %3 = alloca ptr, align 8
  %4 = alloca ptr, align 8
  %5 = alloca ptr, align 8
  %6 = alloca ptr, align 8
  store ptr %0, ptr %4, align 8
  store ptr %1, ptr %5, align 8
  %7 = load ptr, ptr %4, align 8
  %8 = getelementptr inbounds %struct.Aig_Man_t_, ptr %7, i32 0, i32 16
  %9 = load ptr, ptr %8, align 8
  %10 = load ptr, ptr %5, align 8
  %11 = load ptr, ptr %4, align 8
  %12 = getelementptr inbounds %struct.Aig_Man_t_, ptr %11, i32 0, i32 17
  %13 = load i32, ptr %12, align 8
  %14 = call i64 @Aig_Hash(ptr noundef %10, i32 noundef %13)
  %15 = getelementptr inbounds ptr, ptr %9, i64 %14
  store ptr %15, ptr %6, align 8
  br label %16

16:                                               ; preds = %28, %2
  %17 = load ptr, ptr %6, align 8
  %18 = load ptr, ptr %17, align 8
  %19 = icmp ne ptr %18, null
  br i1 %19, label %20, label %32

20:                                               ; preds = %16
  %21 = load ptr, ptr %6, align 8
  %22 = load ptr, ptr %21, align 8
  %23 = load ptr, ptr %5, align 8
  %24 = icmp eq ptr %22, %23
  br i1 %24, label %25, label %27

25:                                               ; preds = %20
  %26 = load ptr, ptr %6, align 8
  store ptr %26, ptr %3, align 8
  br label %34

27:                                               ; preds = %20
  br label %28

28:                                               ; preds = %27
  %29 = load ptr, ptr %6, align 8
  %30 = load ptr, ptr %29, align 8
  %31 = getelementptr inbounds %struct.Aig_Obj_t_, ptr %30, i32 0, i32 0
  store ptr %31, ptr %6, align 8
  br label %16, !llvm.loop !9

32:                                               ; preds = %16
  %33 = load ptr, ptr %6, align 8
  store ptr %33, ptr %3, align 8
  br label %34

34:                                               ; preds = %32, %25
  %35 = load ptr, ptr %3, align 8
  ret ptr %35
}

; Function Attrs: nounwind uwtable
define internal i32 @Aig_ManNodeNum(ptr noundef %0) #0 {
  %2 = alloca ptr, align 8
  store ptr %0, ptr %2, align 8
  %3 = load ptr, ptr %2, align 8
  %4 = getelementptr inbounds %struct.Aig_Man_t_, ptr %3, i32 0, i32 14
  %5 = getelementptr inbounds [7 x i32], ptr %4, i64 0, i64 5
  %6 = load i32, ptr %5, align 4
  %7 = load ptr, ptr %2, align 8
  %8 = getelementptr inbounds %struct.Aig_Man_t_, ptr %7, i32 0, i32 14
  %9 = getelementptr inbounds [7 x i32], ptr %8, i64 0, i64 6
  %10 = load i32, ptr %9, align 8
  %11 = add nsw i32 %6, %10
  ret i32 %11
}

; Function Attrs: nounwind uwtable
define void @Aig_TableInsert(ptr noundef %0, ptr noundef %1) #0 {
  %3 = alloca ptr, align 8
  %4 = alloca ptr, align 8
  %5 = alloca ptr, align 8
  store ptr %0, ptr %3, align 8
  store ptr %1, ptr %4, align 8
  %6 = load ptr, ptr %4, align 8
  %7 = getelementptr inbounds %struct.Aig_Obj_t_, ptr %6, i32 0, i32 5
  %8 = load i32, ptr %7, align 4
  %9 = and i32 %8, 255
  %10 = icmp eq i32 %9, 0
  br i1 %10, label %11, label %21

11:                                               ; preds = %2
  %12 = load ptr, ptr %3, align 8
  %13 = getelementptr inbounds %struct.Aig_Man_t_, ptr %12, i32 0, i32 17
  %14 = load i32, ptr %13, align 8
  %15 = mul nsw i32 2, %14
  %16 = load ptr, ptr %3, align 8
  %17 = call i32 @Aig_ManNodeNum(ptr noundef %16)
  %18 = icmp slt i32 %15, %17
  br i1 %18, label %19, label %21

19:                                               ; preds = %11
  %20 = load ptr, ptr %3, align 8
  call void @Aig_TableResize(ptr noundef %20)
  br label %21

21:                                               ; preds = %19, %11, %2
  %22 = load ptr, ptr %3, align 8
  %23 = load ptr, ptr %4, align 8
  %24 = call ptr @Aig_TableFind(ptr noundef %22, ptr noundef %23)
  store ptr %24, ptr %5, align 8
  %25 = load ptr, ptr %4, align 8
  %26 = load ptr, ptr %5, align 8
  store ptr %25, ptr %26, align 8
  ret void
}