; Function Attrs: nounwind uwtable
define void @Aig_TableInsert(ptr noundef captures(none) %0, ptr noundef %1) local_unnamed_addr #0 {
  %3 = getelementptr inbounds nuw i8, ptr %1, i64 36
  %4 = load i32, ptr %3, align 4
  %5 = and i32 %4, 255
  %6 = icmp eq i32 %5, 0
  br i1 %6, label %7, label %16

7:                                                ; preds = %2
  %8 = getelementptr inbounds nuw i8, ptr %0, i64 168
  %9 = load i32, ptr %8, align 8
  %10 = shl nsw i32 %9, 1
  %11 = getelementptr i8, ptr %0, i64 148
  %.val = load i32, ptr %11, align 4
  %12 = getelementptr i8, ptr %0, i64 152
  %.val8 = load i32, ptr %12, align 8
  %13 = add nsw i32 %.val8, %.val
  %14 = icmp slt i32 %10, %13
  br i1 %14, label %15, label %16

15:                                               ; preds = %7
  tail call void @Aig_TableResize(ptr noundef nonnull %0)
  br label %16

16:                                               ; preds = %15, %7, %2
  %17 = getelementptr i8, ptr %0, i64 160
  %.val9 = load ptr, ptr %17, align 8
  %18 = getelementptr i8, ptr %0, i64 168
  %.val10 = load i32, ptr %18, align 8
  %19 = getelementptr i8, ptr %1, i64 24
  %.val.i.i = load i64, ptr %19, align 8
  %20 = and i64 %.val.i.i, 7
  %21 = icmp eq i64 %20, 6
  %22 = select i1 %21, i64 1699, i64 0
  %23 = getelementptr i8, ptr %1, i64 8
  %.val10.i.i = load ptr, ptr %23, align 8
  %24 = ptrtoint ptr %.val10.i.i to i64
  %25 = and i64 %24, -2
  %26 = inttoptr i64 %25 to ptr
  %27 = getelementptr inbounds nuw i8, ptr %26, i64 36
  %28 = load i32, ptr %27, align 4
  %29 = mul nsw i32 %28, 7937
  %30 = sext i32 %29 to i64
  %31 = xor i64 %22, %30
  %32 = getelementptr i8, ptr %1, i64 16
  %.val11.i.i = load ptr, ptr %32, align 8
  %33 = ptrtoint ptr %.val11.i.i to i64
  %34 = and i64 %33, -2
  %35 = inttoptr i64 %34 to ptr
  %36 = getelementptr inbounds nuw i8, ptr %35, i64 36
  %37 = load i32, ptr %36, align 4
  %38 = mul nsw i32 %37, 2971
  %39 = sext i32 %38 to i64
  %40 = trunc i64 %24 to i1
  %41 = select i1 %40, i64 911, i64 0
  %42 = trunc i64 %33 to i1
  %43 = select i1 %42, i64 353, i64 0
  %44 = xor i64 %31, %41
  %45 = xor i64 %44, %39
  %46 = xor i64 %45, %43
  %47 = sext i32 %.val10 to i64
  %48 = urem i64 %46, %47
  %49 = getelementptr inbounds ptr, ptr %.val9, i64 %48
  br label %50

50:                                               ; preds = %50, %16
  %.0.i = phi ptr [ %49, %16 ], [ %51, %50 ]
  %51 = load ptr, ptr %.0.i, align 8
  %.not.i = icmp eq ptr %51, null
  %52 = icmp eq ptr %51, %1
  %or.cond.i = or i1 %.not.i, %52
  br i1 %or.cond.i, label %Aig_TableFind.exit, label %50, !llvm.loop !7

Aig_TableFind.exit:                               ; preds = %50
  store ptr %1, ptr %.0.i, align 8
  ret void
}